Certificate:
    Data:
        Version: 3 (0x2)
        Serial Number: 2 (0x2)
        Signature Algorithm: sha1WithRSAEncryption
        Issuer: C=PT, ST=LS, L=Lisbon, O=ContaTudo, CN=ContaTudo CA/emailAddress=me@contatudo.gsr
        Validity
            Not Before: May 25 09:15:28 2017 GMT
            Not After : May 23 09:15:28 2027 GMT
        Subject: C=PT, ST=LS, L=Lisbon, O=ContaTudo, CN=adminPC/emailAddress=me@contatudo.gsr
        Subject Public Key Info:
            Public Key Algorithm: rsaEncryption
            RSA Public Key: (1024 bit)
                Modulus (1024 bit):
                    00:d7:2e:a9:58:8f:c8:80:36:9a:bf:37:29:d5:e0:
                    d5:e4:6a:4d:3e:6f:eb:68:ec:25:99:8d:8a:f7:eb:
                    81:01:2d:7a:54:77:98:99:49:ca:6c:8d:2d:71:1e:
                    01:37:97:5d:94:13:3c:ed:04:87:9a:93:b0:49:04:
                    01:9b:02:79:9c:47:a5:21:63:88:db:28:b1:e4:a8:
                    46:34:b7:c5:6e:95:0c:45:21:d8:0e:db:85:a8:f7:
                    48:a2:ab:c3:46:fa:5f:a8:a8:5d:2d:78:3a:6b:63:
                    fd:bb:5f:36:ef:1f:28:7a:05:e0:32:7b:7e:34:f6:
                    69:9d:c3:65:d2:33:d1:1b:19
                Exponent: 65537 (0x10001)
        X509v3 extensions:
            X509v3 Basic Constraints: 
                CA:FALSE
            Netscape Comment: 
                Easy-RSA Generated Certificate
            X509v3 Subject Key Identifier: 
                F7:9C:59:09:A3:8A:63:5C:F8:9E:FC:70:E7:55:55:2C:91:2C:D2:A3
            X509v3 Authority Key Identifier: 
                keyid:24:F8:5D:0C:C9:2B:12:C5:19:D0:F2:DC:82:E0:A0:DF:FC:BF:34:99
                DirName:/C=PT/ST=LS/L=Lisbon/O=ContaTudo/CN=ContaTudo CA/emailAddress=me@contatudo.gsr
                serial:E8:E8:04:F7:4B:10:FB:E0

            X509v3 Extended Key Usage: 
                TLS Web Client Authentication
            X509v3 Key Usage: 
                Digital Signature
    Signature Algorithm: sha1WithRSAEncryption
        0e:fd:41:dd:54:c1:e5:a0:7b:2c:9e:e4:a4:9a:a8:f8:16:7b:
        a6:4f:39:84:4b:66:26:f8:59:cc:33:8c:ed:31:81:0e:ed:0a:
        f4:1e:73:d4:03:09:7a:85:73:a2:65:0f:b8:77:6b:13:47:0b:
        61:0d:e4:4e:3c:57:31:fc:05:63:e6:4a:4c:c4:2c:12:d1:9e:
        61:e8:9c:be:2c:6d:39:6c:91:3b:f9:b4:d3:3e:6c:71:95:6e:
        cb:b0:8f:c8:3d:44:da:bc:4c:ba:9c:92:7e:23:b4:c7:aa:9a:
        30:cc:fd:ba:8c:16:dc:f8:66:98:b5:33:34:d1:92:54:f3:44:
        2c:d2
-----BEGIN CERTIFICATE-----
MIIDjDCCAvWgAwIBAgIBAjANBgkqhkiG9w0BAQUFADB3MQswCQYDVQQGEwJQVDEL
MAkGA1UECBMCTFMxDzANBgNVBAcTBkxpc2JvbjESMBAGA1UEChMJQ29udGFUdWRv
MRUwEwYDVQQDEwxDb250YVR1ZG8gQ0ExHzAdBgkqhkiG9w0BCQEWEG1lQGNvbnRh
dHVkby5nc3IwHhcNMTcwNTI1MDkxNTI4WhcNMjcwNTIzMDkxNTI4WjByMQswCQYD
VQQGEwJQVDELMAkGA1UECBMCTFMxDzANBgNVBAcTBkxpc2JvbjESMBAGA1UEChMJ
Q29udGFUdWRvMRAwDgYDVQQDEwdhZG1pblBDMR8wHQYJKoZIhvcNAQkBFhBtZUBj
b250YXR1ZG8uZ3NyMIGfMA0GCSqGSIb3DQEBAQUAA4GNADCBiQKBgQDXLqlYj8iA
Npq/NynV4NXkak0+b+to7CWZjYr364EBLXpUd5iZScpsjS1xHgE3l12UEzztBIea
k7BJBAGbAnmcR6UhY4jbKLHkqEY0t8VulQxFIdgO24Wo90iiq8NG+l+oqF0teDpr
Y/27XzbvHyh6BeAye3409mmdw2XSM9EbGQIDAQABo4IBKzCCAScwCQYDVR0TBAIw
ADAtBglghkgBhvhCAQ0EIBYeRWFzeS1SU0EgR2VuZXJhdGVkIENlcnRpZmljYXRl
MB0GA1UdDgQWBBT3nFkJo4pjXPie/HDnVVUskSzSozCBqQYDVR0jBIGhMIGegBQk
+F0MySsSxRnQ8tyC4KDf/L80maF7pHkwdzELMAkGA1UEBhMCUFQxCzAJBgNVBAgT
AkxTMQ8wDQYDVQQHEwZMaXNib24xEjAQBgNVBAoTCUNvbnRhVHVkbzEVMBMGA1UE
AxMMQ29udGFUdWRvIENBMR8wHQYJKoZIhvcNAQkBFhBtZUBjb250YXR1ZG8uZ3Ny
ggkA6OgE90sQ++AwEwYDVR0lBAwwCgYIKwYBBQUHAwIwCwYDVR0PBAQDAgeAMA0G
CSqGSIb3DQEBBQUAA4GBAA79Qd1UweWgeyye5KSaqPgWe6ZPOYRLZib4WcwzjO0x
gQ7tCvQec9QDCXqFc6JlD7h3axNHC2EN5E48VzH8BWPmSkzELBLRnmHonL4sbTls
kTv5tNM+bHGVbsuwj8g9RNq8TLqckn4jtMeqmjDM/bqMFtz4Zpi1MzTRklTzRCzS
-----END CERTIFICATE-----
